target datalayout = "e-m:e-p270:32:32-p271:32:32-p272:64:64-i64:64-i128:128-f80:128-n8:16:32:64-S128"
target triple = "x86_64-pc-linux-gnu"

@H5_libterm_g = external global i8, align 1
@H5T_init_g = external global i8, align 1

; Function Attrs: nounwind uwtable
define internal i32 @H5T__cmp_offset(ptr noundef %0, ptr noundef %1, i64 noundef %2, i64 noundef %3, i64 noundef %4, ptr noundef %5) #0 {
  %7 = alloca ptr, align 8
  %8 = alloca ptr, align 8
  %9 = alloca i64, align 8
  %10 = alloca i64, align 8
  %11 = alloca i64, align 8
  %12 = alloca ptr, align 8
  store ptr %0, ptr %7, align 8, !tbaa !16
  store ptr %1, ptr %8, align 8, !tbaa !16
  store i64 %2, ptr %9, align 8, !tbaa !3
  store i64 %3, ptr %10, align 8, !tbaa !3
  store i64 %4, ptr %11, align 8, !tbaa !3
  store ptr %5, ptr %12, align 8, !tbaa !16
  %13 = load i8, ptr @H5T_init_g, align 1, !tbaa !12, !range !14, !noundef !15
  %14 = trunc i8 %13 to i1
  br i1 %14, label %19, label %15

15:                                               ; preds = %6
  %16 = load i8, ptr @H5_libterm_g, align 1, !tbaa !12, !range !14, !noundef !15
  %17 = trunc i8 %16 to i1
  %18 = xor i1 %17, true
  br label %19

19:                                               ; preds = %15, %6
  %20 = phi i1 [ true, %6 ], [ %18, %15 ]
  %21 = xor i1 %20, true
  %22 = xor i1 %21, true
  %23 = zext i1 %22 to i32
  %24 = sext i32 %23 to i64
  %25 = call i64 @llvm.expect.i64(i64 %24, i64 1)
  %26 = icmp ne i64 %25, 0
  br i1 %26, label %27, label %85

27:                                               ; preds = %19
  %28 = load ptr, ptr %8, align 8, !tbaa !16
  %29 = icmp ne ptr %28, null
  br i1 %29, label %30, label %73

30:                                               ; preds = %27
  %31 = load ptr, ptr %7, align 8, !tbaa !16
  %32 = icmp ne ptr %31, null
  br i1 %32, label %33, label %73

33:                                               ; preds = %30
  %34 = load i64, ptr %11, align 8, !tbaa !3
  %35 = icmp ugt i64 %34, 1
  br i1 %35, label %36, label %62

36:                                               ; preds = %33
  %37 = load ptr, ptr %7, align 8, !tbaa !16
  %38 = load i64, ptr %37, align 8, !tbaa !3
  %39 = load i64, ptr %11, align 8, !tbaa !3
  %40 = urem i64 %38, %39
  %41 = icmp ne i64 %40, 0
  br i1 %41, label %42, label %62

42:                                               ; preds = %36
  %43 = load ptr, ptr %7, align 8, !tbaa !16
  %44 = load i64, ptr %43, align 8, !tbaa !3
  %45 = load i64, ptr %11, align 8, !tbaa !3
  %46 = load ptr, ptr %7, align 8, !tbaa !16
  %47 = load i64, ptr %46, align 8, !tbaa !3
  %48 = load i64, ptr %11, align 8, !tbaa !3
  %49 = urem i64 %47, %48
  %50 = sub i64 %45, %49
  %51 = add i64 %44, %50
  %52 = load ptr, ptr %8, align 8, !tbaa !16
  store i64 %51, ptr %52, align 8, !tbaa !3
  %53 = load i64, ptr %11, align 8, !tbaa !3
  %54 = load ptr, ptr %7, align 8, !tbaa !16
  %55 = load i64, ptr %54, align 8, !tbaa !3
  %56 = load i64, ptr %11, align 8, !tbaa !3
  %57 = urem i64 %55, %56
  %58 = sub i64 %53, %57
  %59 = load ptr, ptr %7, align 8, !tbaa !16
  %60 = load i64, ptr %59, align 8, !tbaa !3
  %61 = add i64 %60, %58
  store i64 %61, ptr %59, align 8, !tbaa !3
  br label %66

62:                                               ; preds = %36, %33
  %63 = load ptr, ptr %7, align 8, !tbaa !16
  %64 = load i64, ptr %63, align 8, !tbaa !3
  %65 = load ptr, ptr %8, align 8, !tbaa !16
  store i64 %64, ptr %65, align 8, !tbaa !3
  br label %66

66:                                               ; preds = %62, %42
  %67 = load i64, ptr %10, align 8, !tbaa !3
  %68 = load i64, ptr %9, align 8, !tbaa !3
  %69 = mul i64 %67, %68
  %70 = load ptr, ptr %7, align 8, !tbaa !16
  %71 = load i64, ptr %70, align 8, !tbaa !3
  %72 = add i64 %71, %69
  store i64 %72, ptr %70, align 8, !tbaa !3
  br label %73

73:                                               ; preds = %66, %30, %27
  %74 = load ptr, ptr %12, align 8, !tbaa !16
  %75 = icmp ne ptr %74, null
  br i1 %75, label %76, label %84

76:                                               ; preds = %73
  %77 = load ptr, ptr %12, align 8, !tbaa !16
  %78 = load i64, ptr %77, align 8, !tbaa !3
  %79 = load i64, ptr %11, align 8, !tbaa !3
  %80 = icmp ult i64 %78, %79
  br i1 %80, label %81, label %84

81:                                               ; preds = %76
  %82 = load i64, ptr %11, align 8, !tbaa !3
  %83 = load ptr, ptr %12, align 8, !tbaa !16
  store i64 %82, ptr %83, align 8, !tbaa !3
  br label %84

84:                                               ; preds = %81, %76, %73
  br label %85

85:                                               ; preds = %84, %19
  ret i32 0
}