; Function Attrs: mustprogress nofree norecurse nosync nounwind willreturn memory(read, argmem: readwrite, inaccessiblemem: none) uwtable
define internal fastcc void @H5T__cmp_offset(ptr noundef nonnull captures(none) %0, ptr noundef writeonly captures(address_is_null) %1, i64 noundef %2, i64 noundef %3, i64 noundef %4, ptr noundef captures(address_is_null) %5) unnamed_addr #5 {
  %7 = load i8, ptr @H5T_init_g, align 1, !tbaa !7, !range !9, !noundef !10
  %8 = trunc nuw i8 %7 to i1
  %9 = load i8, ptr @H5_libterm_g, align 1, !range !9
  %10 = trunc nuw i8 %9 to i1
  %11 = xor i1 %10, true
  %12 = select i1 %8, i1 true, i1 %11
  br i1 %12, label %13, label %35, !prof !11

13:                                               ; preds = %6
  %.not = icmp eq ptr %1, null
  br i1 %.not, label %30, label %14

14:                                               ; preds = %13
  %15 = icmp ugt i64 %4, 1
  %.pre = load i64, ptr %0, align 8, !tbaa !3
  br i1 %15, label %16, label %25

16:                                               ; preds = %14
  %17 = urem i64 %.pre, %4
  %.not28 = icmp eq i64 %17, 0
  br i1 %.not28, label %25, label %18

18:                                               ; preds = %16
  %19 = add i64 %.pre, %4
  %20 = sub i64 %19, %17
  store i64 %20, ptr %1, align 8, !tbaa !3
  %21 = load i64, ptr %0, align 8, !tbaa !3
  %22 = urem i64 %21, %4
  %23 = add i64 %21, %4
  %24 = sub i64 %23, %22
  br label %26

25:                                               ; preds = %16, %14
  store i64 %.pre, ptr %1, align 8, !tbaa !3
  %.pre31 = load i64, ptr %0, align 8, !tbaa !3
  br label %26

26:                                               ; preds = %25, %18
  %27 = phi i64 [ %.pre31, %25 ], [ %24, %18 ]
  %28 = mul i64 %3, %2
  %29 = add i64 %27, %28
  store i64 %29, ptr %0, align 8, !tbaa !3
  br label %30

30:                                               ; preds = %26, %13
  %.not29 = icmp eq ptr %5, null
  br i1 %.not29, label %35, label %31

31:                                               ; preds = %30
  %32 = load i64, ptr %5, align 8, !tbaa !3
  %33 = icmp ult i64 %32, %4
  br i1 %33, label %34, label %35

34:                                               ; preds = %31
  store i64 %4, ptr %5, align 8, !tbaa !3
  br label %35

35:                                               ; preds = %30, %31, %34, %6
  ret void
}